target datalayout = "e-m:e-p270:32:32-p271:32:32-p272:64:64-i64:64-i128:128-f80:128-n8:16:32:64-S128"
target triple = "x86_64-pc-linux-gnu"

%struct.ItemPointerData = type { %struct.BlockIdData, i16 }
%struct.BlockIdData = type { i16, i16 }
%struct.TupleDescData = type { i32, i32, i32, i32, ptr, [0 x %struct.CompactAttribute] }
%struct.CompactAttribute = type { i32, i16, i8, i8, i8, i8, i8, i8, i8 }
%struct.HeapTupleData = type { i32, %struct.ItemPointerData, i32, ptr }
%struct.HeapTupleHeaderData = type { %union.anon, %struct.ItemPointerData, i16, i16, i8, [0 x i8] }
%union.anon = type { %struct.HeapTupleFields }
%struct.HeapTupleFields = type { i32, i32, %union.anon.0 }
%union.anon.0 = type { i32 }
%struct.DatumTupleFields = type { i32, i32, i32 }
%struct.anon = type { i32, [0 x i8] }

@.str.4 = private unnamed_addr constant [12 x i8] c"execUtils.c\00", align 1
@.str.6 = private unnamed_addr constant [33 x i8] c"a NULL isNull pointer was passed\00", align 1
@.str.8 = private unnamed_addr constant [28 x i8] c"invalid attribute number %d\00", align 1
@__func__.GetAttributeByNum = private unnamed_addr constant [18 x i8] c"GetAttributeByNum\00", align 1

; Function Attrs: inlinehint nounwind uwtable
define internal void @BlockIdSet(ptr noundef %0, i32 noundef %1) #3 {
  %3 = alloca ptr, align 8
  %4 = alloca i32, align 4
  store ptr %0, ptr %3, align 8
  store i32 %1, ptr %4, align 4
  %5 = load i32, ptr %4, align 4
  %6 = lshr i32 %5, 16
  %7 = trunc i32 %6 to i16
  %8 = load ptr, ptr %3, align 8
  %9 = getelementptr inbounds nuw %struct.BlockIdData, ptr %8, i32 0, i32 0
  store i16 %7, ptr %9, align 2
  %10 = load i32, ptr %4, align 4
  %11 = and i32 %10, 65535
  %12 = trunc i32 %11 to i16
  %13 = load ptr, ptr %3, align 8
  %14 = getelementptr inbounds nuw %struct.BlockIdData, ptr %13, i32 0, i32 1
  store i16 %12, ptr %14, align 2
  ret void
}

; Function Attrs: inlinehint nounwind uwtable
define internal void @ItemPointerSetInvalid(ptr noundef %0) #3 {
  %2 = alloca ptr, align 8
  store ptr %0, ptr %2, align 8
  %3 = load ptr, ptr %2, align 8
  %4 = getelementptr inbounds nuw %struct.ItemPointerData, ptr %3, i32 0, i32 0
  call void @BlockIdSet(ptr noundef %4, i32 noundef -1)
  %5 = load ptr, ptr %2, align 8
  %6 = getelementptr inbounds nuw %struct.ItemPointerData, ptr %5, i32 0, i32 1
  store i16 0, ptr %6, align 2
  ret void
}

; Function Attrs: inlinehint nounwind uwtable
define internal i32 @HeapTupleHeaderGetDatumLength(ptr noundef %0) #3 {
  %2 = alloca ptr, align 8
  store ptr %0, ptr %2, align 8
  %3 = load ptr, ptr %2, align 8
  %4 = getelementptr inbounds nuw %struct.anon, ptr %3, i32 0, i32 0
  %5 = load i32, ptr %4, align 4
  %6 = lshr i32 %5, 2
  %7 = and i32 %6, 1073741823
  ret i32 %7
}

; Function Attrs: inlinehint nounwind uwtable
define internal i32 @HeapTupleHeaderGetTypMod(ptr noundef %0) #3 {
  %2 = alloca ptr, align 8
  store ptr %0, ptr %2, align 8
  %3 = load ptr, ptr %2, align 8
  %4 = getelementptr inbounds nuw %struct.HeapTupleHeaderData, ptr %3, i32 0, i32 0
  %5 = getelementptr inbounds nuw %struct.DatumTupleFields, ptr %4, i32 0, i32 1
  %6 = load i32, ptr %5, align 4
  ret i32 %6
}

; Function Attrs: inlinehint nounwind uwtable
define internal i32 @HeapTupleHeaderGetTypeId(ptr noundef %0) #3 {
  %2 = alloca ptr, align 8
  store ptr %0, ptr %2, align 8
  %3 = load ptr, ptr %2, align 8
  %4 = getelementptr inbounds nuw %struct.HeapTupleHeaderData, ptr %3, i32 0, i32 0
  %5 = getelementptr inbounds nuw %struct.DatumTupleFields, ptr %4, i32 0, i32 2
  %6 = load i32, ptr %5, align 4
  ret i32 %6
}

; Function Attrs: nounwind uwtable
define dso_local i64 @GetAttributeByNum(ptr noundef %0, i16 noundef signext %1, ptr noundef %2) #0 {
  %4 = alloca i64, align 8
  %5 = alloca ptr, align 8
  %6 = alloca i16, align 2
  %7 = alloca ptr, align 8
  %8 = alloca i64, align 8
  %9 = alloca i32, align 4
  %10 = alloca i32, align 4
  %11 = alloca ptr, align 8
  %12 = alloca %struct.HeapTupleData, align 8
  %13 = alloca i32, align 4
  store ptr %0, ptr %5, align 8
  store i16 %1, ptr %6, align 2
  store ptr %2, ptr %7, align 8
  call void @llvm.lifetime.start.p0(i64 8, ptr %8) #6
  call void @llvm.lifetime.start.p0(i64 4, ptr %9) #6
  call void @llvm.lifetime.start.p0(i64 4, ptr %10) #6
  call void @llvm.lifetime.start.p0(i64 8, ptr %11) #6
  call void @llvm.lifetime.start.p0(i64 24, ptr %12) #6
  %14 = load i16, ptr %6, align 2
  %15 = sext i16 %14 to i32
  %16 = icmp ne i32 %15, 0
  br i1 %16, label %30, label %17

17:                                               ; preds = %3
  br label %18

18:                                               ; preds = %17
  br i1 true, label %19, label %21

19:                                               ; preds = %18
  %20 = call zeroext i1 @errstart_cold(i32 noundef 21, ptr noundef null) #7
  br i1 %20, label %23, label %27

21:                                               ; preds = %18
  %22 = call zeroext i1 @errstart(i32 noundef 21, ptr noundef null)
  br i1 %22, label %23, label %27

23:                                               ; preds = %21, %19
  %24 = load i16, ptr %6, align 2
  %25 = sext i16 %24 to i32
  %26 = call i32 (ptr, ...) @errmsg_internal(ptr noundef @.str.8, i32 noundef %25)
  call void @errfinish(ptr noundef @.str.4, i32 noundef 1125, ptr noundef @__func__.GetAttributeByNum)
  br label %27

27:                                               ; preds = %23, %21, %19
  unreachable

28:                                               ; No predecessors!
  br label %29

29:                                               ; preds = %28
  br label %30

30:                                               ; preds = %29, %3
  %31 = load ptr, ptr %7, align 8
  %32 = icmp eq ptr %31, null
  br i1 %32, label %33, label %44

33:                                               ; preds = %30
  br label %34

34:                                               ; preds = %33
  br i1 true, label %35, label %37

35:                                               ; preds = %34
  %36 = call zeroext i1 @errstart_cold(i32 noundef 21, ptr noundef null) #7
  br i1 %36, label %39, label %41

37:                                               ; preds = %34
  %38 = call zeroext i1 @errstart(i32 noundef 21, ptr noundef null)
  br i1 %38, label %39, label %41

39:                                               ; preds = %37, %35
  %40 = call i32 (ptr, ...) @errmsg_internal(ptr noundef @.str.6)
  call void @errfinish(ptr noundef @.str.4, i32 noundef 1128, ptr noundef @__func__.GetAttributeByNum)
  br label %41

41:                                               ; preds = %39, %37, %35
  unreachable

42:                                               ; No predecessors!
  br label %43

43:                                               ; preds = %42
  br label %44

44:                                               ; preds = %43, %30
  %45 = load ptr, ptr %5, align 8
  %46 = icmp eq ptr %45, null
  br i1 %46, label %47, label %49

47:                                               ; preds = %44
  %48 = load ptr, ptr %7, align 8
  store i8 1, ptr %48, align 1
  store i64 0, ptr %4, align 8
  store i32 1, ptr %13, align 4
  br label %80

49:                                               ; preds = %44
  %50 = load ptr, ptr %5, align 8
  %51 = call i32 @HeapTupleHeaderGetTypeId(ptr noundef %50)
  store i32 %51, ptr %9, align 4
  %52 = load ptr, ptr %5, align 8
  %53 = call i32 @HeapTupleHeaderGetTypMod(ptr noundef %52)
  store i32 %53, ptr %10, align 4
  %54 = load i32, ptr %9, align 4
  %55 = load i32, ptr %10, align 4
  %56 = call ptr @lookup_rowtype_tupdesc(i32 noundef %54, i32 noundef %55)
  store ptr %56, ptr %11, align 8
  %57 = load ptr, ptr %5, align 8
  %58 = call i32 @HeapTupleHeaderGetDatumLength(ptr noundef %57)
  %59 = getelementptr inbounds nuw %struct.HeapTupleData, ptr %12, i32 0, i32 0
  store i32 %58, ptr %59, align 8
  %60 = getelementptr inbounds nuw %struct.HeapTupleData, ptr %12, i32 0, i32 1
  call void @ItemPointerSetInvalid(ptr noundef %60)
  %61 = getelementptr inbounds nuw %struct.HeapTupleData, ptr %12, i32 0, i32 2
  store i32 0, ptr %61, align 4
  %62 = load ptr, ptr %5, align 8
  %63 = getelementptr inbounds nuw %struct.HeapTupleData, ptr %12, i32 0, i32 3
  store ptr %62, ptr %63, align 8
  %64 = load i16, ptr %6, align 2
  %65 = sext i16 %64 to i32
  %66 = load ptr, ptr %11, align 8
  %67 = load ptr, ptr %7, align 8
  %68 = call i64 @heap_getattr(ptr noundef %12, i32 noundef %65, ptr noundef %66, ptr noundef %67)
  store i64 %68, ptr %8, align 8
  br label %69

69:                                               ; preds = %49
  %70 = load ptr, ptr %11, align 8
  %71 = getelementptr inbounds nuw %struct.TupleDescData, ptr %70, i32 0, i32 3
  %72 = load i32, ptr %71, align 4
  %73 = icmp sge i32 %72, 0
  br i1 %73, label %74, label %76

74:                                               ; preds = %69
  %75 = load ptr, ptr %11, align 8
  call void @DecrTupleDescRefCount(ptr noundef %75)
  br label %76

76:                                               ; preds = %74, %69
  br label %77

77:                                               ; preds = %76
  br label %78

78:                                               ; preds = %77
  %79 = load i64, ptr %8, align 8
  store i64 %79, ptr %4, align 8
  store i32 1, ptr %13, align 4
  br label %80

80:                                               ; preds = %78, %47
  call void @llvm.lifetime.end.p0(i64 24, ptr %12) #6
  call void @llvm.lifetime.end.p0(i64 8, ptr %11) #6
  call void @llvm.lifetime.end.p0(i64 4, ptr %10) #6
  call void @llvm.lifetime.end.p0(i64 4, ptr %9) #6
  call void @llvm.lifetime.end.p0(i64 8, ptr %8) #6
  %81 = load i64, ptr %4, align 8
  ret i64 %81
}