; Function Attrs: nounwind uwtable
define dso_local i64 @GetAttributeByNum(ptr noundef %0, i16 noundef signext %1, ptr noundef %2) local_unnamed_addr #0 {
  %4 = alloca %struct.HeapTupleData, align 8
  call void @llvm.lifetime.start.p0(i64 24, ptr nonnull %4) #12
  %5 = sext i16 %1 to i32
  %.not = icmp eq i16 %1, 0
  br i1 %.not, label %6, label %9

6:                                                ; preds = %3
  %7 = tail call zeroext i1 @errstart_cold(i32 noundef 21, ptr noundef null) #13
  tail call void @llvm.assume(i1 %7)
  %8 = tail call i32 (ptr, ...) @errmsg_internal(ptr noundef nonnull @.str.8, i32 noundef 0) #12
  tail call void @errfinish(ptr noundef nonnull @.str.4, i32 noundef 1125, ptr noundef nonnull @__func__.GetAttributeByNum) #12
  unreachable

9:                                                ; preds = %3
  %10 = icmp eq ptr %2, null
  br i1 %10, label %11, label %14

11:                                               ; preds = %9
  %12 = tail call zeroext i1 @errstart_cold(i32 noundef 21, ptr noundef null) #13
  tail call void @llvm.assume(i1 %12)
  %13 = tail call i32 (ptr, ...) @errmsg_internal(ptr noundef nonnull @.str.6) #12
  tail call void @errfinish(ptr noundef nonnull @.str.4, i32 noundef 1128, ptr noundef nonnull @__func__.GetAttributeByNum) #12
  unreachable

14:                                               ; preds = %9
  %15 = icmp eq ptr %0, null
  br i1 %15, label %16, label %17

16:                                               ; preds = %14
  store i8 1, ptr %2, align 1
  br label %32

17:                                               ; preds = %14
  %18 = getelementptr i8, ptr %0, i64 8
  %.val = load i32, ptr %18, align 4
  %19 = getelementptr i8, ptr %0, i64 4
  %.val20 = load i32, ptr %19, align 4
  %20 = tail call ptr @lookup_rowtype_tupdesc(i32 noundef %.val, i32 noundef %.val20) #12
  %.val21 = load i32, ptr %0, align 4
  %21 = lshr i32 %.val21, 2
  store i32 %21, ptr %4, align 8
  %22 = getelementptr inbounds nuw i8, ptr %4, i64 4
  store i16 -1, ptr %22, align 4
  %23 = getelementptr inbounds nuw i8, ptr %4, i64 6
  store i16 -1, ptr %23, align 2
  %24 = getelementptr inbounds nuw i8, ptr %4, i64 8
  store i16 0, ptr %24, align 8
  %25 = getelementptr inbounds nuw i8, ptr %4, i64 12
  store i32 0, ptr %25, align 4
  %26 = getelementptr inbounds nuw i8, ptr %4, i64 16
  store ptr %0, ptr %26, align 8
  %27 = call fastcc i64 @heap_getattr(ptr noundef %4, i32 noundef %5, ptr noundef %20, ptr noundef %2)
  %28 = getelementptr inbounds nuw i8, ptr %20, i64 12
  %29 = load i32, ptr %28, align 4
  %30 = icmp sgt i32 %29, -1
  br i1 %30, label %31, label %32

31:                                               ; preds = %17
  call void @DecrTupleDescRefCount(ptr noundef nonnull %20) #12
  br label %32

32:                                               ; preds = %17, %31, %16
  %.0 = phi i64 [ 0, %16 ], [ %27, %31 ], [ %27, %17 ]
  call void @llvm.lifetime.end.p0(i64 24, ptr nonnull %4) #12
  ret i64 %.0
}